; Function Attrs: mustprogress uwtable
define hidden void @_ZN3sat6solver26extract_fixed_consequencesENS_7literalERKNS_11literal_setER16tracked_uint_setR6vectorI7svectorIS1_jELb1EjE(ptr noundef nonnull align 8 dereferenceable(4408) %this, i32 %lit.coerce, ptr nocapture noundef nonnull readonly align 8 dereferenceable(16) %assumptions, ptr nocapture noundef nonnull readonly align 8 dereferenceable(16) %unfixed, ptr noundef nonnull align 8 dereferenceable(8) %conseq) local_unnamed_addr #3 align 2 {
entry:
  %m_todo_antecedents = getelementptr inbounds i8, ptr %this, i64 4400
  %0 = load ptr, ptr %m_todo_antecedents, align 8
  %cmp.i = icmp eq ptr %0, null
  br i1 %cmp.i, label %if.then.i, label %lor.lhs.false.i

lor.lhs.false.i:                                  ; preds = %entry
  %arrayidx.i = getelementptr inbounds i8, ptr %0, i64 -4
  %1 = load i32, ptr %arrayidx.i, align 4
  %arrayidx4.i = getelementptr inbounds i8, ptr %0, i64 -8
  %2 = load i32, ptr %arrayidx4.i, align 4
  %cmp5.i = icmp eq i32 %1, %2
  br i1 %cmp5.i, label %if.then.i, label %_ZN6vectorIN3sat7literalELb0EjE9push_backERKS1_.exit

if.then.i:                                        ; preds = %lor.lhs.false.i, %entry
  tail call void @_ZN6vectorIN3sat7literalELb0EjE13expand_vectorEv(ptr noundef nonnull align 8 dereferenceable(8) %m_todo_antecedents)
  %.pre.i = load ptr, ptr %m_todo_antecedents, align 8
  %arrayidx8.phi.trans.insert.i = getelementptr inbounds i8, ptr %.pre.i, i64 -4
  %.pre1.i = load i32, ptr %arrayidx8.phi.trans.insert.i, align 4
  br label %_ZN6vectorIN3sat7literalELb0EjE9push_backERKS1_.exit

_ZN6vectorIN3sat7literalELb0EjE9push_backERKS1_.exit: ; preds = %lor.lhs.false.i, %if.then.i
  %3 = phi i32 [ %.pre1.i, %if.then.i ], [ %1, %lor.lhs.false.i ]
  %4 = phi ptr [ %.pre.i, %if.then.i ], [ %0, %lor.lhs.false.i ]
  %idx.ext.i = zext i32 %3 to i64
  %add.ptr.i = getelementptr inbounds %"class.sat::literal", ptr %4, i64 %idx.ext.i
  store i32 %lit.coerce, ptr %add.ptr.i, align 4
  %5 = load ptr, ptr %m_todo_antecedents, align 8
  %arrayidx10.i = getelementptr inbounds i8, ptr %5, i64 -4
  %6 = load i32, ptr %arrayidx10.i, align 4
  %inc.i = add i32 %6, 1
  store i32 %inc.i, ptr %arrayidx10.i, align 4
  %7 = load ptr, ptr %m_todo_antecedents, align 8
  %cmp.i14 = icmp eq ptr %7, null
  br i1 %cmp.i14, label %while.end, label %_ZNK6vectorIN3sat7literalELb0EjE5emptyEv.exit

_ZNK6vectorIN3sat7literalELb0EjE5emptyEv.exit:    ; preds = %_ZN6vectorIN3sat7literalELb0EjE9push_backERKS1_.exit, %if.end
  %8 = phi ptr [ %14, %if.end ], [ %7, %_ZN6vectorIN3sat7literalELb0EjE9push_backERKS1_.exit ]
  %arrayidx.i2 = getelementptr inbounds i8, ptr %8, i64 -4
  %9 = load i32, ptr %arrayidx.i2, align 4
  %cmp3.i = icmp eq i32 %9, 0
  br i1 %cmp3.i, label %while.end, label %_ZN6vectorIN3sat7literalELb0EjE4backEv.exit

_ZN6vectorIN3sat7literalELb0EjE4backEv.exit:      ; preds = %_ZNK6vectorIN3sat7literalELb0EjE5emptyEv.exit
  %10 = add i32 %9, -1
  %11 = zext i32 %10 to i64
  %arrayidx.i1.i = getelementptr inbounds %"class.sat::literal", ptr %8, i64 %11
  %agg.tmp.sroa.0.0.copyload = load i32, ptr %arrayidx.i1.i, align 4
  %call7 = tail call noundef zeroext i1 @_ZN3sat6solver27extract_fixed_consequences1ENS_7literalERKNS_11literal_setER16tracked_uint_setR6vectorI7svectorIS1_jELb1EjE(ptr noundef nonnull align 8 dereferenceable(4408) %this, i32 %agg.tmp.sroa.0.0.copyload, ptr noundef nonnull align 8 dereferenceable(16) %assumptions, ptr noundef nonnull align 8 dereferenceable(16) %unfixed, ptr noundef nonnull align 8 dereferenceable(8) %conseq)
  br i1 %call7, label %if.then, label %if.end

if.then:                                          ; preds = %_ZN6vectorIN3sat7literalELb0EjE4backEv.exit
  %12 = load ptr, ptr %m_todo_antecedents, align 8
  %arrayidx.i3 = getelementptr inbounds i8, ptr %12, i64 -4
  %13 = load i32, ptr %arrayidx.i3, align 4
  %dec.i = add i32 %13, -1
  store i32 %dec.i, ptr %arrayidx.i3, align 4
  br label %if.end

if.end:                                           ; preds = %if.then, %_ZN6vectorIN3sat7literalELb0EjE4backEv.exit
  %14 = load ptr, ptr %m_todo_antecedents, align 8
  %cmp.i1 = icmp eq ptr %14, null
  br i1 %cmp.i1, label %while.end, label %_ZNK6vectorIN3sat7literalELb0EjE5emptyEv.exit, !llvm.loop !168

while.end:                                        ; preds = %_ZNK6vectorIN3sat7literalELb0EjE5emptyEv.exit, %if.end, %_ZN6vectorIN3sat7literalELb0EjE9push_backERKS1_.exit
  ret void
}